; Function Attrs: mustprogress uwtable
define internal fastcc void @_ZN6AssimpL12UnknownChunkEPNS_12StreamReaderILb0ELb0EEERKNS_8SIBChunkE(i32 %.0.val) unnamed_addr #0 personality ptr @__gxx_personality_v0 {
  %1 = alloca [4 x i8], align 1
  %2 = alloca %"class.std::__cxx11::basic_string", align 8
  call void @llvm.lifetime.start.p0(i64 4, ptr nonnull %1) #25
  %3 = lshr i32 %.0.val, 24
  %4 = trunc nuw i32 %3 to i8
  store i8 %4, ptr %1, align 1
  %5 = getelementptr inbounds nuw i8, ptr %1, i64 1
  %6 = lshr i32 %.0.val, 16
  %7 = trunc i32 %6 to i8
  store i8 %7, ptr %5, align 1
  %8 = getelementptr inbounds nuw i8, ptr %1, i64 2
  %9 = lshr i32 %.0.val, 8
  %10 = trunc i32 %9 to i8
  store i8 %10, ptr %8, align 1
  %11 = getelementptr inbounds nuw i8, ptr %1, i64 3
  %12 = trunc i32 %.0.val to i8
  store i8 %12, ptr %11, align 1
  %13 = tail call noundef ptr @_ZN6Assimp13DefaultLogger3getEv()
  call void @llvm.lifetime.start.p0(i64 32, ptr nonnull %2) #25
  call void @_Z18ai_str_toprintableB5cxx11PKcic(ptr dead_on_unwind nonnull writable sret(%"class.std::__cxx11::basic_string") align 8 %2, ptr noundef nonnull %1, i32 noundef 4, i8 noundef signext 63)
  invoke void @_ZN6Assimp6Logger4warnIJRA24_KcNSt7__cxx1112basic_stringIcSt11char_traitsIcESaIcEEERA9_S2_EEEvDpOT_(ptr noundef nonnull align 8 dereferenceable(12) %13, ptr noundef nonnull align 1 dereferenceable(24) @.str.36, ptr noundef nonnull align 8 dereferenceable(32) %2, ptr noundef nonnull align 1 dereferenceable(9) @.str.37)
          to label %14 unwind label %23

14:                                               ; preds = %0
  %15 = load ptr, ptr %2, align 8
  %16 = getelementptr inbounds nuw i8, ptr %2, i64 16
  %17 = icmp eq ptr %15, %16
  br i1 %17, label %_ZNKSt7__cxx1112basic_stringIcSt11char_traitsIcESaIcEE11_M_is_localEv.exit.thread.i.i, label %_ZNKSt7__cxx1112basic_stringIcSt11char_traitsIcESaIcEE11_M_is_localEv.exit.i.i

_ZNKSt7__cxx1112basic_stringIcSt11char_traitsIcESaIcEE11_M_is_localEv.exit.thread.i.i: ; preds = %14
  %18 = getelementptr inbounds nuw i8, ptr %2, i64 8
  %19 = load i64, ptr %18, align 8
  %20 = icmp ult i64 %19, 16
  call void @llvm.assume(i1 %20)
  br label %_ZNSt7__cxx1112basic_stringIcSt11char_traitsIcESaIcEED2Ev.exit

_ZNKSt7__cxx1112basic_stringIcSt11char_traitsIcESaIcEE11_M_is_localEv.exit.i.i: ; preds = %14
  %21 = load i64, ptr %16, align 8
  %22 = add i64 %21, 1
  call void @_ZdlPvm(ptr noundef %15, i64 noundef %22) #26
  br label %_ZNSt7__cxx1112basic_stringIcSt11char_traitsIcESaIcEED2Ev.exit

_ZNSt7__cxx1112basic_stringIcSt11char_traitsIcESaIcEED2Ev.exit: ; preds = %_ZNKSt7__cxx1112basic_stringIcSt11char_traitsIcESaIcEE11_M_is_localEv.exit.thread.i.i, %_ZNKSt7__cxx1112basic_stringIcSt11char_traitsIcESaIcEE11_M_is_localEv.exit.i.i
  call void @llvm.lifetime.end.p0(i64 32, ptr nonnull %2) #25
  call void @llvm.lifetime.end.p0(i64 4, ptr nonnull %1) #25
  ret void

23:                                               ; preds = %0
  %24 = landingpad { ptr, i32 }
          cleanup
  %25 = load ptr, ptr %2, align 8
  %26 = getelementptr inbounds nuw i8, ptr %2, i64 16
  %27 = icmp eq ptr %25, %26
  br i1 %27, label %_ZNKSt7__cxx1112basic_stringIcSt11char_traitsIcESaIcEE11_M_is_localEv.exit.thread.i.i6, label %_ZNKSt7__cxx1112basic_stringIcSt11char_traitsIcESaIcEE11_M_is_localEv.exit.i.i5

_ZNKSt7__cxx1112basic_stringIcSt11char_traitsIcESaIcEE11_M_is_localEv.exit.thread.i.i6: ; preds = %23
  %28 = getelementptr inbounds nuw i8, ptr %2, i64 8
  %29 = load i64, ptr %28, align 8
  %30 = icmp ult i64 %29, 16
  call void @llvm.assume(i1 %30)
  br label %_ZNSt7__cxx1112basic_stringIcSt11char_traitsIcESaIcEED2Ev.exit7

_ZNKSt7__cxx1112basic_stringIcSt11char_traitsIcESaIcEE11_M_is_localEv.exit.i.i5: ; preds = %23
  %31 = load i64, ptr %26, align 8
  %32 = add i64 %31, 1
  call void @_ZdlPvm(ptr noundef %25, i64 noundef %32) #26
  br label %_ZNSt7__cxx1112basic_stringIcSt11char_traitsIcESaIcEED2Ev.exit7

_ZNSt7__cxx1112basic_stringIcSt11char_traitsIcESaIcEED2Ev.exit7: ; preds = %_ZNKSt7__cxx1112basic_stringIcSt11char_traitsIcESaIcEE11_M_is_localEv.exit.thread.i.i6, %_ZNKSt7__cxx1112basic_stringIcSt11char_traitsIcESaIcEE11_M_is_localEv.exit.i.i5
  call void @llvm.lifetime.end.p0(i64 32, ptr nonnull %2) #25
  call void @llvm.lifetime.end.p0(i64 4, ptr nonnull %1) #25
  resume { ptr, i32 } %24
}